target datalayout = "e-m:e-p270:32:32-p271:32:32-p272:64:64-i64:64-i128:128-f80:128-n8:16:32:64-S128"
target triple = "x86_64-pc-linux-gnu"

%struct.PsqlScanStateData = type { ptr, ptr, ptr, ptr, ptr, ptr, i32, i8, i8, ptr, ptr, i32, i32, i32, i32, ptr, i32, [4 x i8], i32, ptr, ptr }
%struct.PQExpBufferData = type { ptr, i64, i64 }
%struct.StackElem = type { ptr, ptr, ptr, ptr, ptr }

@stderr = external global ptr, align 8
@.str.19 = private unnamed_addr constant [18 x i8] c"invalid YY_START\0A\00", align 1
@.str.20 = private unnamed_addr constant [22 x i8] c"invalid yylex result\0A\00", align 1

; Function Attrs: nounwind uwtable
define dso_local i32 @psql_scan(ptr noundef %0, ptr noundef %1, ptr noundef %2) #0 {
  %4 = alloca ptr, align 8
  %5 = alloca ptr, align 8
  %6 = alloca ptr, align 8
  %7 = alloca i32, align 4
  %8 = alloca i32, align 4
  store ptr %0, ptr %4, align 8
  store ptr %1, ptr %5, align 8
  store ptr %2, ptr %6, align 8
  call void @llvm.lifetime.start.p0(i64 4, ptr %7) #12
  call void @llvm.lifetime.start.p0(i64 4, ptr %8) #12
  %9 = load ptr, ptr %5, align 8
  %10 = load ptr, ptr %4, align 8
  %11 = getelementptr inbounds nuw %struct.PsqlScanStateData, ptr %10, i32 0, i32 1
  store ptr %9, ptr %11, align 8
  %12 = load ptr, ptr %4, align 8
  %13 = getelementptr inbounds nuw %struct.PsqlScanStateData, ptr %12, i32 0, i32 2
  %14 = load ptr, ptr %13, align 8
  %15 = icmp ne ptr %14, null
  br i1 %15, label %16, label %25

16:                                               ; preds = %3
  %17 = load ptr, ptr %4, align 8
  %18 = getelementptr inbounds nuw %struct.PsqlScanStateData, ptr %17, i32 0, i32 2
  %19 = load ptr, ptr %18, align 8
  %20 = getelementptr inbounds nuw %struct.StackElem, ptr %19, i32 0, i32 0
  %21 = load ptr, ptr %20, align 8
  %22 = load ptr, ptr %4, align 8
  %23 = getelementptr inbounds nuw %struct.PsqlScanStateData, ptr %22, i32 0, i32 0
  %24 = load ptr, ptr %23, align 8
  call void @psql_yy_switch_to_buffer(ptr noundef %21, ptr noundef %24)
  br label %32

25:                                               ; preds = %3
  %26 = load ptr, ptr %4, align 8
  %27 = getelementptr inbounds nuw %struct.PsqlScanStateData, ptr %26, i32 0, i32 3
  %28 = load ptr, ptr %27, align 8
  %29 = load ptr, ptr %4, align 8
  %30 = getelementptr inbounds nuw %struct.PsqlScanStateData, ptr %29, i32 0, i32 0
  %31 = load ptr, ptr %30, align 8
  call void @psql_yy_switch_to_buffer(ptr noundef %28, ptr noundef %31)
  br label %32

32:                                               ; preds = %25, %16
  %33 = load ptr, ptr %4, align 8
  %34 = getelementptr inbounds nuw %struct.PsqlScanStateData, ptr %33, i32 0, i32 0
  %35 = load ptr, ptr %34, align 8
  %36 = call i32 @psql_yylex(ptr noundef null, ptr noundef %35)
  store i32 %36, ptr %8, align 4
  %37 = load i32, ptr %8, align 4
  switch i32 %37, label %94 [
    i32 0, label %38
    i32 1, label %90
    i32 2, label %92
  ]

38:                                               ; preds = %32
  %39 = load ptr, ptr %4, align 8
  %40 = getelementptr inbounds nuw %struct.PsqlScanStateData, ptr %39, i32 0, i32 11
  %41 = load i32, ptr %40, align 8
  switch i32 %41, label %86 [
    i32 0, label %42
    i32 6, label %42
    i32 1, label %68
    i32 2, label %70
    i32 3, label %72
    i32 4, label %74
    i32 7, label %76
    i32 5, label %78
    i32 8, label %80
    i32 9, label %82
    i32 10, label %84
  ]

42:                                               ; preds = %38, %38
  %43 = load ptr, ptr %4, align 8
  %44 = getelementptr inbounds nuw %struct.PsqlScanStateData, ptr %43, i32 0, i32 13
  %45 = load i32, ptr %44, align 8
  %46 = icmp sgt i32 %45, 0
  br i1 %46, label %47, label %49

47:                                               ; preds = %42
  store i32 2, ptr %7, align 4
  %48 = load ptr, ptr %6, align 8
  store i32 6, ptr %48, align 4
  br label %67

49:                                               ; preds = %42
  %50 = load ptr, ptr %4, align 8
  %51 = getelementptr inbounds nuw %struct.PsqlScanStateData, ptr %50, i32 0, i32 18
  %52 = load i32, ptr %51, align 8
  %53 = icmp sgt i32 %52, 0
  br i1 %53, label %54, label %56

54:                                               ; preds = %49
  store i32 2, ptr %7, align 4
  %55 = load ptr, ptr %6, align 8
  store i32 1, ptr %55, align 4
  br label %66

56:                                               ; preds = %49
  %57 = load ptr, ptr %5, align 8
  %58 = getelementptr inbounds nuw %struct.PQExpBufferData, ptr %57, i32 0, i32 1
  %59 = load i64, ptr %58, align 8
  %60 = icmp ugt i64 %59, 0
  br i1 %60, label %61, label %63

61:                                               ; preds = %56
  store i32 3, ptr %7, align 4
  %62 = load ptr, ptr %6, align 8
  store i32 1, ptr %62, align 4
  br label %65

63:                                               ; preds = %56
  store i32 2, ptr %7, align 4
  %64 = load ptr, ptr %6, align 8
  store i32 0, ptr %64, align 4
  br label %65

65:                                               ; preds = %63, %61
  br label %66

66:                                               ; preds = %65, %54
  br label %67

67:                                               ; preds = %66, %47
  br label %89

68:                                               ; preds = %38
  store i32 2, ptr %7, align 4
  %69 = load ptr, ptr %6, align 8
  store i32 3, ptr %69, align 4
  br label %89

70:                                               ; preds = %38
  store i32 2, ptr %7, align 4
  %71 = load ptr, ptr %6, align 8
  store i32 2, ptr %71, align 4
  br label %89

72:                                               ; preds = %38
  store i32 2, ptr %7, align 4
  %73 = load ptr, ptr %6, align 8
  store i32 4, ptr %73, align 4
  br label %89

74:                                               ; preds = %38
  store i32 2, ptr %7, align 4
  %75 = load ptr, ptr %6, align 8
  store i32 3, ptr %75, align 4
  br label %89

76:                                               ; preds = %38
  store i32 2, ptr %7, align 4
  %77 = load ptr, ptr %6, align 8
  store i32 3, ptr %77, align 4
  br label %89

78:                                               ; preds = %38
  store i32 2, ptr %7, align 4
  %79 = load ptr, ptr %6, align 8
  store i32 3, ptr %79, align 4
  br label %89

80:                                               ; preds = %38
  store i32 2, ptr %7, align 4
  %81 = load ptr, ptr %6, align 8
  store i32 5, ptr %81, align 4
  br label %89

82:                                               ; preds = %38
  store i32 2, ptr %7, align 4
  %83 = load ptr, ptr %6, align 8
  store i32 4, ptr %83, align 4
  br label %89

84:                                               ; preds = %38
  store i32 2, ptr %7, align 4
  %85 = load ptr, ptr %6, align 8
  store i32 3, ptr %85, align 4
  br label %89

86:                                               ; preds = %38
  %87 = load ptr, ptr @stderr, align 8
  %88 = call i32 (ptr, ptr, ...) @pg_fprintf(ptr noundef %87, ptr noundef @.str.19)
  call void @exit(i32 noundef 1) #15
  unreachable

89:                                               ; preds = %84, %82, %80, %78, %76, %74, %72, %70, %68, %67
  br label %97

90:                                               ; preds = %32
  store i32 0, ptr %7, align 4
  %91 = load ptr, ptr %6, align 8
  store i32 0, ptr %91, align 4
  br label %97

92:                                               ; preds = %32
  store i32 1, ptr %7, align 4
  %93 = load ptr, ptr %6, align 8
  store i32 0, ptr %93, align 4
  br label %97

94:                                               ; preds = %32
  %95 = load ptr, ptr @stderr, align 8
  %96 = call i32 (ptr, ptr, ...) @pg_fprintf(ptr noundef %95, ptr noundef @.str.20)
  call void @exit(i32 noundef 1) #15
  unreachable

97:                                               ; preds = %92, %90, %89
  %98 = load i32, ptr %7, align 4
  call void @llvm.lifetime.end.p0(i64 4, ptr %8) #12
  call void @llvm.lifetime.end.p0(i64 4, ptr %7) #12
  ret i32 %98
}